target datalayout = "e-m:e-p270:32:32-p271:32:32-p272:64:64-i64:64-i128:128-f80:128-n8:16:32:64-S128"
target triple = "x86_64-pc-linux-gnu"

%struct._object = type { %union.anon, ptr }
%union.anon = type { i64 }
%struct.PyVarObject = type { %struct._object, i64 }
%struct.anon = type { i32, i32 }
%struct.dequeobject = type { %struct.PyVarObject, ptr, ptr, i64, i64, i64, i64, i64, [16 x ptr], ptr }
%struct.BLOCK = type { ptr, [64 x ptr], ptr }

@PyExc_IndexError = external global ptr, align 8
@.str.48 = private unnamed_addr constant [25 x i8] c"deque index out of range\00", align 1

; Function Attrs: alwaysinline nounwind uwtable
define internal i32 @_Py_IsImmortal(ptr noundef %0) #4 {
  %2 = alloca ptr, align 8
  store ptr %0, ptr %2, align 8, !tbaa !4
  %3 = load ptr, ptr %2, align 8, !tbaa !4
  %4 = getelementptr inbounds nuw %struct._object, ptr %3, i32 0, i32 0
  %5 = getelementptr inbounds nuw %struct.anon, ptr %4, i32 0, i32 0
  %6 = load i32, ptr %5, align 8, !tbaa !39
  %7 = icmp slt i32 %6, 0
  %8 = zext i1 %7 to i32
  ret i32 %8
}

; Function Attrs: alwaysinline nounwind uwtable
define internal void @Py_INCREF(ptr noundef %0) #4 {
  %2 = alloca ptr, align 8
  %3 = alloca i32, align 4
  %4 = alloca i32, align 4
  store ptr %0, ptr %2, align 8, !tbaa !4
  call void @llvm.lifetime.start.p0(i64 4, ptr %3) #7
  %5 = load ptr, ptr %2, align 8, !tbaa !4
  %6 = getelementptr inbounds nuw %struct._object, ptr %5, i32 0, i32 0
  %7 = getelementptr inbounds nuw %struct.anon, ptr %6, i32 0, i32 0
  %8 = load i32, ptr %7, align 8, !tbaa !39
  store i32 %8, ptr %3, align 4, !tbaa !13
  %9 = load i32, ptr %3, align 4, !tbaa !13
  %10 = icmp slt i32 %9, 0
  br i1 %10, label %11, label %12

11:                                               ; preds = %1
  store i32 1, ptr %4, align 4
  br label %18

12:                                               ; preds = %1
  %13 = load i32, ptr %3, align 4, !tbaa !13
  %14 = add i32 %13, 1
  %15 = load ptr, ptr %2, align 8, !tbaa !4
  %16 = getelementptr inbounds nuw %struct._object, ptr %15, i32 0, i32 0
  %17 = getelementptr inbounds nuw %struct.anon, ptr %16, i32 0, i32 0
  store i32 %14, ptr %17, align 8, !tbaa !39
  store i32 0, ptr %4, align 4
  br label %18

18:                                               ; preds = %12, %11
  call void @llvm.lifetime.end.p0(i64 4, ptr %3) #7
  %19 = load i32, ptr %4, align 4
  switch i32 %19, label %21 [
    i32 0, label %20
    i32 1, label %20
  ]

20:                                               ; preds = %18, %18
  ret void

21:                                               ; preds = %18
  unreachable
}

; Function Attrs: alwaysinline nounwind uwtable
define internal void @Py_DECREF(ptr noundef %0) #4 {
  %2 = alloca ptr, align 8
  store ptr %0, ptr %2, align 8, !tbaa !4
  %3 = load ptr, ptr %2, align 8, !tbaa !4
  %4 = call i32 @_Py_IsImmortal(ptr noundef %3)
  %5 = icmp ne i32 %4, 0
  br i1 %5, label %6, label %7

6:                                                ; preds = %1
  br label %16

7:                                                ; preds = %1
  %8 = load ptr, ptr %2, align 8, !tbaa !4
  %9 = getelementptr inbounds nuw %struct._object, ptr %8, i32 0, i32 0
  %10 = getelementptr inbounds nuw %struct.anon, ptr %9, i32 0, i32 0
  %11 = load i32, ptr %10, align 8, !tbaa !39
  %12 = add i32 %11, -1
  store i32 %12, ptr %10, align 8, !tbaa !39
  %13 = icmp eq i32 %12, 0
  br i1 %13, label %14, label %16

14:                                               ; preds = %7
  %15 = load ptr, ptr %2, align 8, !tbaa !4
  call void @_Py_Dealloc(ptr noundef %15)
  br label %16

16:                                               ; preds = %6, %14, %7
  ret void
}

; Function Attrs: inlinehint nounwind uwtable
define internal ptr @_Py_NewRef(ptr noundef %0) #3 {
  %2 = alloca ptr, align 8
  store ptr %0, ptr %2, align 8, !tbaa !4
  %3 = load ptr, ptr %2, align 8, !tbaa !4
  call void @Py_INCREF(ptr noundef %3)
  %4 = load ptr, ptr %2, align 8, !tbaa !4
  ret ptr %4
}

; Function Attrs: nounwind uwtable
define internal i32 @valid_index(i64 noundef %0, i64 noundef %1) #0 {
  %3 = alloca i64, align 8
  %4 = alloca i64, align 8
  store i64 %0, ptr %3, align 8, !tbaa !24
  store i64 %1, ptr %4, align 8, !tbaa !24
  %5 = load i64, ptr %3, align 8, !tbaa !24
  %6 = load i64, ptr %4, align 8, !tbaa !24
  %7 = icmp ult i64 %5, %6
  %8 = zext i1 %7 to i32
  ret i32 %8
}

; Function Attrs: inlinehint nounwind uwtable
define internal i64 @Py_SIZE(ptr noundef %0) #3 {
  %2 = alloca ptr, align 8
  store ptr %0, ptr %2, align 8, !tbaa !4
  %3 = load ptr, ptr %2, align 8, !tbaa !4
  %4 = getelementptr inbounds nuw %struct.PyVarObject, ptr %3, i32 0, i32 1
  %5 = load i64, ptr %4, align 8, !tbaa !72
  ret i64 %5
}

; Function Attrs: nounwind uwtable
define internal i32 @deque_ass_item_lock_held(ptr noundef %0, i64 noundef %1, ptr noundef %2) #0 {
  %4 = alloca i32, align 4
  %5 = alloca ptr, align 8
  %6 = alloca i64, align 8
  %7 = alloca ptr, align 8
  %8 = alloca ptr, align 8
  %9 = alloca i64, align 8
  %10 = alloca i64, align 8
  %11 = alloca i64, align 8
  %12 = alloca i64, align 8
  %13 = alloca i32, align 4
  %14 = alloca ptr, align 8
  %15 = alloca ptr, align 8
  store ptr %0, ptr %5, align 8, !tbaa !43
  store i64 %1, ptr %6, align 8, !tbaa !24
  store ptr %2, ptr %7, align 8, !tbaa !4
  call void @llvm.lifetime.start.p0(i64 8, ptr %8) #7
  call void @llvm.lifetime.start.p0(i64 8, ptr %9) #7
  call void @llvm.lifetime.start.p0(i64 8, ptr %10) #7
  %16 = load ptr, ptr %5, align 8, !tbaa !43
  %17 = call i64 @Py_SIZE(ptr noundef %16)
  store i64 %17, ptr %10, align 8, !tbaa !24
  call void @llvm.lifetime.start.p0(i64 8, ptr %11) #7
  %18 = load i64, ptr %10, align 8, !tbaa !24
  %19 = add i64 %18, 1
  %20 = ashr i64 %19, 1
  store i64 %20, ptr %11, align 8, !tbaa !24
  call void @llvm.lifetime.start.p0(i64 8, ptr %12) #7
  %21 = load i64, ptr %6, align 8, !tbaa !24
  store i64 %21, ptr %12, align 8, !tbaa !24
  %22 = load i64, ptr %6, align 8, !tbaa !24
  %23 = load i64, ptr %10, align 8, !tbaa !24
  %24 = call i32 @valid_index(i64 noundef %22, i64 noundef %23)
  %25 = icmp ne i32 %24, 0
  br i1 %25, label %28, label %26

26:                                               ; preds = %3
  %27 = load ptr, ptr @PyExc_IndexError, align 8, !tbaa !4
  call void @PyErr_SetString(ptr noundef %27, ptr noundef @.str.48)
  store i32 -1, ptr %4, align 4
  store i32 1, ptr %13, align 4
  br label %98

28:                                               ; preds = %3
  %29 = load ptr, ptr %7, align 8, !tbaa !4
  %30 = icmp eq ptr %29, null
  br i1 %30, label %31, label %35

31:                                               ; preds = %28
  %32 = load ptr, ptr %5, align 8, !tbaa !43
  %33 = load i64, ptr %6, align 8, !tbaa !24
  %34 = call i32 @deque_del_item(ptr noundef %32, i64 noundef %33)
  store i32 %34, ptr %4, align 4
  store i32 1, ptr %13, align 4
  br label %98

35:                                               ; preds = %28
  %36 = load ptr, ptr %5, align 8, !tbaa !43
  %37 = getelementptr inbounds nuw %struct.dequeobject, ptr %36, i32 0, i32 3
  %38 = load i64, ptr %37, align 8, !tbaa !56
  %39 = load i64, ptr %6, align 8, !tbaa !24
  %40 = add i64 %39, %38
  store i64 %40, ptr %6, align 8, !tbaa !24
  %41 = load i64, ptr %6, align 8, !tbaa !24
  %42 = udiv i64 %41, 64
  store i64 %42, ptr %9, align 8, !tbaa !24
  %43 = load i64, ptr %6, align 8, !tbaa !24
  %44 = urem i64 %43, 64
  store i64 %44, ptr %6, align 8, !tbaa !24
  %45 = load i64, ptr %12, align 8, !tbaa !24
  %46 = load i64, ptr %11, align 8, !tbaa !24
  %47 = icmp sle i64 %45, %46
  br i1 %47, label %48, label %61

48:                                               ; preds = %35
  %49 = load ptr, ptr %5, align 8, !tbaa !43
  %50 = getelementptr inbounds nuw %struct.dequeobject, ptr %49, i32 0, i32 1
  %51 = load ptr, ptr %50, align 8, !tbaa !48
  store ptr %51, ptr %8, align 8, !tbaa !51
  br label %52

52:                                               ; preds = %56, %48
  %53 = load i64, ptr %9, align 8, !tbaa !24
  %54 = add i64 %53, -1
  store i64 %54, ptr %9, align 8, !tbaa !24
  %55 = icmp sge i64 %54, 0
  br i1 %55, label %56, label %60

56:                                               ; preds = %52
  %57 = load ptr, ptr %8, align 8, !tbaa !51
  %58 = getelementptr inbounds nuw %struct.BLOCK, ptr %57, i32 0, i32 2
  %59 = load ptr, ptr %58, align 8, !tbaa !58
  store ptr %59, ptr %8, align 8, !tbaa !51
  br label %52, !llvm.loop !99

60:                                               ; preds = %52
  br label %84

61:                                               ; preds = %35
  %62 = load ptr, ptr %5, align 8, !tbaa !43
  %63 = getelementptr inbounds nuw %struct.dequeobject, ptr %62, i32 0, i32 3
  %64 = load i64, ptr %63, align 8, !tbaa !56
  %65 = load ptr, ptr %5, align 8, !tbaa !43
  %66 = call i64 @Py_SIZE(ptr noundef %65)
  %67 = add i64 %64, %66
  %68 = sub i64 %67, 1
  %69 = udiv i64 %68, 64
  %70 = load i64, ptr %9, align 8, !tbaa !24
  %71 = sub i64 %69, %70
  store i64 %71, ptr %9, align 8, !tbaa !24
  %72 = load ptr, ptr %5, align 8, !tbaa !43
  %73 = getelementptr inbounds nuw %struct.dequeobject, ptr %72, i32 0, i32 2
  %74 = load ptr, ptr %73, align 8, !tbaa !49
  store ptr %74, ptr %8, align 8, !tbaa !51
  br label %75

75:                                               ; preds = %79, %61
  %76 = load i64, ptr %9, align 8, !tbaa !24
  %77 = add i64 %76, -1
  store i64 %77, ptr %9, align 8, !tbaa !24
  %78 = icmp sge i64 %77, 0
  br i1 %78, label %79, label %83

79:                                               ; preds = %75
  %80 = load ptr, ptr %8, align 8, !tbaa !51
  %81 = getelementptr inbounds nuw %struct.BLOCK, ptr %80, i32 0, i32 0
  %82 = load ptr, ptr %81, align 8, !tbaa !73
  store ptr %82, ptr %8, align 8, !tbaa !51
  br label %75, !llvm.loop !100

83:                                               ; preds = %75
  br label %84

84:                                               ; preds = %83, %60
  br label %85

85:                                               ; preds = %84
  call void @llvm.lifetime.start.p0(i64 8, ptr %14) #7
  %86 = load ptr, ptr %8, align 8, !tbaa !51
  %87 = getelementptr inbounds nuw %struct.BLOCK, ptr %86, i32 0, i32 1
  %88 = load i64, ptr %6, align 8, !tbaa !24
  %89 = getelementptr [64 x ptr], ptr %87, i64 0, i64 %88
  store ptr %89, ptr %14, align 8, !tbaa !22
  call void @llvm.lifetime.start.p0(i64 8, ptr %15) #7
  %90 = load ptr, ptr %14, align 8, !tbaa !22
  %91 = load ptr, ptr %90, align 8, !tbaa !4
  store ptr %91, ptr %15, align 8, !tbaa !4
  %92 = load ptr, ptr %7, align 8, !tbaa !4
  %93 = call ptr @_Py_NewRef(ptr noundef %92)
  %94 = load ptr, ptr %14, align 8, !tbaa !22
  store ptr %93, ptr %94, align 8, !tbaa !4
  %95 = load ptr, ptr %15, align 8, !tbaa !4
  call void @Py_DECREF(ptr noundef %95)
  call void @llvm.lifetime.end.p0(i64 8, ptr %15) #7
  call void @llvm.lifetime.end.p0(i64 8, ptr %14) #7
  br label %96

96:                                               ; preds = %85
  br label %97

97:                                               ; preds = %96
  store i32 0, ptr %4, align 4
  store i32 1, ptr %13, align 4
  br label %98

98:                                               ; preds = %97, %31, %26
  call void @llvm.lifetime.end.p0(i64 8, ptr %12) #7
  call void @llvm.lifetime.end.p0(i64 8, ptr %11) #7
  call void @llvm.lifetime.end.p0(i64 8, ptr %10) #7
  call void @llvm.lifetime.end.p0(i64 8, ptr %9) #7
  call void @llvm.lifetime.end.p0(i64 8, ptr %8) #7
  %99 = load i32, ptr %4, align 4
  ret i32 %99
}

; Function Attrs: nounwind uwtable
define internal i32 @deque_ass_item(ptr noundef %0, i64 noundef %1, ptr noundef %2) #0 {
  %4 = alloca ptr, align 8
  %5 = alloca i64, align 8
  %6 = alloca ptr, align 8
  %7 = alloca i32, align 4
  store ptr %0, ptr %4, align 8, !tbaa !43
  store i64 %1, ptr %5, align 8, !tbaa !24
  store ptr %2, ptr %6, align 8, !tbaa !4
  call void @llvm.lifetime.start.p0(i64 4, ptr %7) #7
  %8 = load ptr, ptr %4, align 8, !tbaa !43
  %9 = load i64, ptr %5, align 8, !tbaa !24
  %10 = load ptr, ptr %6, align 8, !tbaa !4
  %11 = call i32 @deque_ass_item_lock_held(ptr noundef %8, i64 noundef %9, ptr noundef %10)
  store i32 %11, ptr %7, align 4, !tbaa !13
  %12 = load i32, ptr %7, align 4, !tbaa !13
  call void @llvm.lifetime.end.p0(i64 4, ptr %7) #7
  ret i32 %12
}