; Function Attrs: nounwind uwtable
define internal range(i32 -1, 1) i32 @deque_ass_item(ptr noundef captures(none) %0, i64 noundef %1, ptr noundef %2) #0 {
  %4 = getelementptr i8, ptr %0, i64 16
  %.val36.i = load i64, ptr %4, align 8, !tbaa !52
  %5 = add i64 %.val36.i, 1
  %6 = ashr i64 %5, 1
  %.not.i = icmp ult i64 %1, %.val36.i
  br i1 %.not.i, label %9, label %7

7:                                                ; preds = %3
  %8 = load ptr, ptr @PyExc_IndexError, align 8, !tbaa !21
  tail call void @PyErr_SetString(ptr noundef %8, ptr noundef nonnull @.str.48) #9
  br label %deque_ass_item_lock_held.exit

9:                                                ; preds = %3
  %10 = icmp eq ptr %2, null
  br i1 %10, label %11, label %13

11:                                               ; preds = %9
  %12 = tail call fastcc i32 @deque_del_item(ptr noundef nonnull %0, i64 noundef %1)
  br label %deque_ass_item_lock_held.exit

13:                                               ; preds = %9
  %14 = getelementptr inbounds nuw i8, ptr %0, i64 40
  %15 = load i64, ptr %14, align 8, !tbaa !46
  %16 = add i64 %15, %1
  %17 = lshr i64 %16, 6
  %18 = and i64 %16, 63
  %.not35.i = icmp sgt i64 %1, %6
  br i1 %.not35.i, label %24, label %19

19:                                               ; preds = %13
  %20 = getelementptr inbounds nuw i8, ptr %0, i64 24
  %.02938.i = load ptr, ptr %20, align 8, !tbaa !41
  %.not41.i = icmp ult i64 %16, 64
  br i1 %.not41.i, label %.loopexit.i, label %.lr.ph.i

.lr.ph.i:                                         ; preds = %19, %.lr.ph.i
  %.02940.i = phi ptr [ %.029.i, %.lr.ph.i ], [ %.02938.i, %19 ]
  %.03039.i = phi i64 [ %21, %.lr.ph.i ], [ %17, %19 ]
  %21 = add nsw i64 %.03039.i, -1
  %22 = getelementptr inbounds nuw i8, ptr %.02940.i, i64 520
  %.029.i = load ptr, ptr %22, align 8, !tbaa !41
  %23 = icmp samesign ugt i64 %.03039.i, 1
  br i1 %23, label %.lr.ph.i, label %.loopexit.i, !llvm.loop !74

24:                                               ; preds = %13
  %25 = add i64 %.val36.i, -1
  %26 = add i64 %25, %15
  %27 = lshr i64 %26, 6
  %28 = sub nsw i64 %27, %17
  %29 = getelementptr inbounds nuw i8, ptr %0, i64 32
  br label %30

30:                                               ; preds = %30, %24
  %.131.i = phi i64 [ %28, %24 ], [ %32, %30 ]
  %.1.in.i = phi ptr [ %29, %24 ], [ %.1.i, %30 ]
  %.1.i = load ptr, ptr %.1.in.i, align 8, !tbaa !41
  %31 = icmp sgt i64 %.131.i, 0
  %32 = add nsw i64 %.131.i, -1
  br i1 %31, label %30, label %.loopexit.i, !llvm.loop !75

.loopexit.i:                                      ; preds = %.lr.ph.i, %30, %19
  %.2.i = phi ptr [ %.02938.i, %19 ], [ %.1.i, %30 ], [ %.029.i, %.lr.ph.i ]
  %33 = getelementptr inbounds nuw i8, ptr %.2.i, i64 8
  %34 = getelementptr [64 x ptr], ptr %33, i64 0, i64 %18
  %35 = load ptr, ptr %34, align 8, !tbaa !21
  %36 = load i32, ptr %2, align 8, !tbaa !20
  %37 = icmp slt i32 %36, 0
  br i1 %37, label %_Py_NewRef.exit.i, label %38

38:                                               ; preds = %.loopexit.i
  %39 = add nuw i32 %36, 1
  store i32 %39, ptr %2, align 8, !tbaa !20
  br label %_Py_NewRef.exit.i

_Py_NewRef.exit.i:                                ; preds = %38, %.loopexit.i
  store ptr %2, ptr %34, align 8, !tbaa !21
  %40 = load i32, ptr %35, align 8, !tbaa !20
  %.not.i.i = icmp sgt i32 %40, -1
  br i1 %.not.i.i, label %41, label %deque_ass_item_lock_held.exit

41:                                               ; preds = %_Py_NewRef.exit.i
  %42 = add nsw i32 %40, -1
  store i32 %42, ptr %35, align 8, !tbaa !20
  %43 = icmp eq i32 %42, 0
  br i1 %43, label %44, label %deque_ass_item_lock_held.exit

44:                                               ; preds = %41
  tail call void @_Py_Dealloc(ptr noundef nonnull %35) #9
  br label %deque_ass_item_lock_held.exit

deque_ass_item_lock_held.exit:                    ; preds = %7, %11, %_Py_NewRef.exit.i, %41, %44
  %.0.i = phi i32 [ %12, %11 ], [ -1, %7 ], [ 0, %_Py_NewRef.exit.i ], [ 0, %41 ], [ 0, %44 ]
  ret i32 %.0.i
}